; Function Attrs: mustprogress nounwind uwtable
define internal fastcc void @_ZNK12_GLOBAL__N_19Intrinsic10mangleNameB5cxx11E9ClassKind(ptr dead_on_unwind noalias nonnull writable align 8 %0, ptr noundef nonnull align 8 dereferenceable(336) %1, i32 noundef %2) unnamed_addr #3 align 2 {
  %4 = alloca %"class.std::__cxx11::basic_string", align 8
  %5 = alloca %"class.std::__cxx11::basic_string", align 8
  %6 = alloca %"class.std::__cxx11::basic_string", align 8
  %7 = alloca %"class.std::__cxx11::basic_string", align 8
  %8 = alloca %"class.std::__cxx11::basic_string", align 8
  %9 = alloca %"class.std::__cxx11::basic_string", align 8
  call void @_ZNSt7__cxx1112basic_stringIcSt11char_traitsIcESaIcEEC1ERKS4_(ptr noundef nonnull align 8 dereferenceable(32) %4, ptr noundef nonnull align 8 dereferenceable(336) %1) #21
  %10 = icmp eq i32 %2, 2
  %11 = call noundef i64 @_ZNKSt7__cxx1112basic_stringIcSt11char_traitsIcESaIcEE4findEcm(ptr noundef nonnull align 8 dereferenceable(32) %4, i8 noundef signext 91, i64 noundef 0) #21
  %.not1115 = icmp eq i64 %11, -1
  br i1 %10, label %.preheader, label %.preheader12

.preheader12:                                     ; preds = %3
  br i1 %.not1115, label %.loopexit, label %.lr.ph

.preheader:                                       ; preds = %3
  br i1 %.not1115, label %.loopexit, label %.lr.ph16

.lr.ph16:                                         ; preds = %.preheader, %.lr.ph16
  %12 = call noundef i64 @_ZNKSt7__cxx1112basic_stringIcSt11char_traitsIcESaIcEE4findEcm(ptr noundef nonnull align 8 dereferenceable(32) %4, i8 noundef signext 91, i64 noundef 0) #21
  %13 = call noundef i64 @_ZNKSt7__cxx1112basic_stringIcSt11char_traitsIcESaIcEE4findEcm(ptr noundef nonnull align 8 dereferenceable(32) %4, i8 noundef signext 93, i64 noundef 0) #21
  %reass.sub = sub i64 %13, %12
  %14 = add i64 %reass.sub, 1
  %15 = call noundef nonnull align 8 dereferenceable(32) ptr @_ZNSt7__cxx1112basic_stringIcSt11char_traitsIcESaIcEE5eraseEmm(ptr noundef nonnull align 8 dereferenceable(32) %4, i64 noundef %12, i64 noundef %14) #21
  %16 = call noundef i64 @_ZNKSt7__cxx1112basic_stringIcSt11char_traitsIcESaIcEE4findEcm(ptr noundef nonnull align 8 dereferenceable(32) %4, i8 noundef signext 91, i64 noundef 0) #21
  %.not11 = icmp eq i64 %16, -1
  br i1 %.not11, label %.loopexit, label %.lr.ph16, !llvm.loop !125

.lr.ph:                                           ; preds = %.preheader12, %24
  %17 = call noundef i64 @_ZNKSt7__cxx1112basic_stringIcSt11char_traitsIcESaIcEE4findEcm(ptr noundef nonnull align 8 dereferenceable(32) %4, i8 noundef signext 91, i64 noundef 0) #21
  %.not9 = icmp eq i64 %17, -1
  br i1 %.not9, label %20, label %18

18:                                               ; preds = %.lr.ph
  %19 = call noundef nonnull align 8 dereferenceable(32) ptr @_ZNSt7__cxx1112basic_stringIcSt11char_traitsIcESaIcEE5eraseEmm(ptr noundef nonnull align 8 dereferenceable(32) %4, i64 noundef %17, i64 noundef 1) #21
  br label %20

20:                                               ; preds = %18, %.lr.ph
  %21 = call noundef i64 @_ZNKSt7__cxx1112basic_stringIcSt11char_traitsIcESaIcEE4findEcm(ptr noundef nonnull align 8 dereferenceable(32) %4, i8 noundef signext 93, i64 noundef 0) #21
  %.not10 = icmp eq i64 %21, -1
  br i1 %.not10, label %24, label %22

22:                                               ; preds = %20
  %23 = call noundef nonnull align 8 dereferenceable(32) ptr @_ZNSt7__cxx1112basic_stringIcSt11char_traitsIcESaIcEE5eraseEmm(ptr noundef nonnull align 8 dereferenceable(32) %4, i64 noundef %21, i64 noundef 1) #21
  br label %24

24:                                               ; preds = %22, %20
  %25 = call noundef i64 @_ZNKSt7__cxx1112basic_stringIcSt11char_traitsIcESaIcEE4findEcm(ptr noundef nonnull align 8 dereferenceable(32) %4, i8 noundef signext 91, i64 noundef 0) #21
  %.not = icmp eq i64 %25, -1
  br i1 %.not, label %.loopexit, label %.lr.ph, !llvm.loop !126

.loopexit:                                        ; preds = %24, %.lr.ph16, %.preheader12, %.preheader
  call void @_ZNSt7__cxx1112basic_stringIcSt11char_traitsIcESaIcEEC1ERKS4_(ptr noundef nonnull align 8 dereferenceable(32) %6, ptr noundef nonnull align 8 dereferenceable(32) %4) #21
  %26 = getelementptr inbounds nuw i8, ptr %1, i64 96
  call void @_ZNSt7__cxx1112basic_stringIcSt11char_traitsIcESaIcEEC1ERKS4_(ptr noundef nonnull align 8 dereferenceable(32) %7, ptr noundef nonnull align 8 dereferenceable(32) %26) #21
  %27 = getelementptr inbounds nuw i8, ptr %1, i64 64
  call void @_ZNSt7__cxx1112basic_stringIcSt11char_traitsIcESaIcEEC1ERKS4_(ptr noundef nonnull align 8 dereferenceable(32) %8, ptr noundef nonnull align 8 dereferenceable(32) %27) #21
  call fastcc void @_ZNK12_GLOBAL__N_19Intrinsic20replaceTemplatedArgsENSt7__cxx1112basic_stringIcSt11char_traitsIcESaIcEEES6_S6_(ptr dead_on_unwind noalias writable align 8 %5, ptr noundef %6, ptr noundef %7, ptr noundef %8)
  %28 = getelementptr inbounds nuw i8, ptr %1, i64 200
  call void @_ZNSt7__cxx1112basic_stringIcSt11char_traitsIcESaIcEEC1ERKS4_(ptr noundef nonnull align 8 dereferenceable(32) %9, ptr noundef nonnull align 8 dereferenceable(32) %28) #21
  %29 = call noundef i64 @_ZNKSt7__cxx1112basic_stringIcSt11char_traitsIcESaIcEE4sizeEv(ptr noundef nonnull align 8 dereferenceable(32) %5) #21, !noalias !127
  %30 = call noundef i64 @_ZNKSt7__cxx1112basic_stringIcSt11char_traitsIcESaIcEE4sizeEv(ptr noundef nonnull align 8 dereferenceable(32) %9) #21, !noalias !127
  %31 = add i64 %30, %29
  %32 = call noundef i64 @_ZNKSt7__cxx1112basic_stringIcSt11char_traitsIcESaIcEE8capacityEv(ptr noundef nonnull align 8 dereferenceable(32) %5) #21, !noalias !127
  %33 = icmp ugt i64 %31, %32
  br i1 %33, label %34, label %38

34:                                               ; preds = %.loopexit
  %35 = call noundef i64 @_ZNKSt7__cxx1112basic_stringIcSt11char_traitsIcESaIcEE8capacityEv(ptr noundef nonnull align 8 dereferenceable(32) %9) #21, !noalias !127
  %.not.i = icmp ugt i64 %31, %35
  br i1 %.not.i, label %38, label %36

36:                                               ; preds = %34
  %37 = call noundef nonnull align 8 dereferenceable(32) ptr @_ZNSt7__cxx1112basic_stringIcSt11char_traitsIcESaIcEE6insertEmRKS4_(ptr noundef nonnull align 8 dereferenceable(32) %9, i64 noundef 0, ptr noundef nonnull align 8 dereferenceable(32) %5) #21, !noalias !127
  br label %_ZStplIcSt11char_traitsIcESaIcEENSt7__cxx1112basic_stringIT_T0_T1_EEOS8_S9_.exit

38:                                               ; preds = %34, %.loopexit
  %39 = call noundef nonnull align 8 dereferenceable(32) ptr @_ZNSt7__cxx1112basic_stringIcSt11char_traitsIcESaIcEE6appendERKS4_(ptr noundef nonnull align 8 dereferenceable(32) %5, ptr noundef nonnull align 8 dereferenceable(32) %9) #21, !noalias !127
  br label %_ZStplIcSt11char_traitsIcESaIcEENSt7__cxx1112basic_stringIT_T0_T1_EEOS8_S9_.exit

_ZStplIcSt11char_traitsIcESaIcEENSt7__cxx1112basic_stringIT_T0_T1_EEOS8_S9_.exit: ; preds = %36, %38
  %.sink.i = phi ptr [ %39, %38 ], [ %37, %36 ]
  call void @_ZNSt7__cxx1112basic_stringIcSt11char_traitsIcESaIcEEC1EOS4_(ptr noundef nonnull align 8 dereferenceable(32) %0, ptr noundef nonnull align 8 dereferenceable(32) %.sink.i) #21
  call void @_ZNSt7__cxx1112basic_stringIcSt11char_traitsIcESaIcEED1Ev(ptr noundef nonnull align 8 dereferenceable(32) %9) #21
  call void @_ZNSt7__cxx1112basic_stringIcSt11char_traitsIcESaIcEED1Ev(ptr noundef nonnull align 8 dereferenceable(32) %5) #21
  call void @_ZNSt7__cxx1112basic_stringIcSt11char_traitsIcESaIcEED1Ev(ptr noundef nonnull align 8 dereferenceable(32) %8) #21
  call void @_ZNSt7__cxx1112basic_stringIcSt11char_traitsIcESaIcEED1Ev(ptr noundef nonnull align 8 dereferenceable(32) %7) #21
  call void @_ZNSt7__cxx1112basic_stringIcSt11char_traitsIcESaIcEED1Ev(ptr noundef nonnull align 8 dereferenceable(32) %6) #21
  call void @_ZNSt7__cxx1112basic_stringIcSt11char_traitsIcESaIcEED1Ev(ptr noundef nonnull align 8 dereferenceable(32) %4) #21
  ret void
}